; Function Attrs: mustprogress uwtable
define dso_local void @_ZN4i18n12phonenumbers11UnicodeTextC2ERKS1_(ptr noundef nonnull align 8 dereferenceable(24) initializes((0, 18)) %0, ptr noundef nonnull readonly align 8 captures(none) dereferenceable(24) %1) unnamed_addr #1 align 2 personality ptr @__gxx_personality_v0 {
  %3 = getelementptr inbounds nuw i8, ptr %0, i64 16
  tail call void @llvm.memset.p0.i64(ptr noundef nonnull align 8 dereferenceable(18) %0, i8 0, i64 16, i1 false)
  store i8 1, ptr %3, align 8, !tbaa !17
  %4 = getelementptr inbounds nuw i8, ptr %0, i64 17
  store i8 1, ptr %4, align 1, !tbaa !43
  %5 = invoke noundef nonnull align 8 dereferenceable(24) ptr @_ZN4i18n12phonenumbers11UnicodeText4CopyERKS1_(ptr noundef nonnull align 8 dereferenceable(24) %0, ptr noundef nonnull align 8 dereferenceable(24) %1)
          to label %6 unwind label %7

6:                                                ; preds = %2
  ret void

7:                                                ; preds = %2
  %8 = landingpad { ptr, i32 }
          cleanup
  %9 = load i8, ptr %3, align 8, !tbaa !17, !range !18, !noundef !19
  %10 = trunc nuw i8 %9 to i1
  br i1 %10, label %11, label %_ZN4i18n12phonenumbers11UnicodeText4ReprD2Ev.exit

11:                                               ; preds = %7
  %12 = load ptr, ptr %0, align 8, !tbaa !20
  %13 = icmp eq ptr %12, null
  br i1 %13, label %_ZN4i18n12phonenumbers11UnicodeText4ReprD2Ev.exit, label %14

14:                                               ; preds = %11
  tail call void @_ZdaPv(ptr noundef nonnull %12) #26
  br label %_ZN4i18n12phonenumbers11UnicodeText4ReprD2Ev.exit

_ZN4i18n12phonenumbers11UnicodeText4ReprD2Ev.exit: ; preds = %7, %11, %14
  resume { ptr, i32 } %8
}